target datalayout = "e-m:e-p270:32:32-p271:32:32-p272:64:64-i64:64-i128:128-f80:128-n8:16:32:64-S128"
target triple = "x86_64-unknown-linux-gnu"

%struct.QEMULogItem = type { i32, ptr, ptr }

@.str.1 = private unnamed_addr constant [2 x i8] c",\00", align 1
@.str.49 = private unnamed_addr constant [4 x i8] c"all\00", align 1
@.str.50 = private unnamed_addr constant [7 x i8] c"trace:\00", align 1

; Function Attrs: nounwind sspstrong uwtable
define dso_local i32 @qemu_str_to_log_mask(ptr noundef %str) #0 {
entry:
  %retval = alloca i32, align 4
  %str.addr = alloca ptr, align 8
  %item = alloca ptr, align 8
  %mask = alloca i32, align 4
  %parts = alloca ptr, align 8
  %tmp = alloca ptr, align 8
  store ptr %str, ptr %str.addr, align 8
  store i32 0, ptr %mask, align 4
  %0 = load ptr, ptr %str.addr, align 8
  %call = call ptr @g_strsplit(ptr noundef %0, ptr noundef @.str.1, i32 noundef 0)
  store ptr %call, ptr %parts, align 8
  %1 = load ptr, ptr %parts, align 8
  store ptr %1, ptr %tmp, align 8
  br label %for.cond

for.cond:                                         ; preds = %for.inc30, %entry
  %2 = load ptr, ptr %tmp, align 8
  %tobool = icmp ne ptr %2, null
  br i1 %tobool, label %land.rhs, label %land.end

land.rhs:                                         ; preds = %for.cond
  %3 = load ptr, ptr %tmp, align 8
  %4 = load ptr, ptr %3, align 8
  %tobool1 = icmp ne ptr %4, null
  br label %land.end

land.end:                                         ; preds = %land.rhs, %for.cond
  %5 = phi i1 [ false, %for.cond ], [ %tobool1, %land.rhs ]
  br i1 %5, label %for.body, label %for.end32

for.body:                                         ; preds = %land.end
  %6 = load ptr, ptr %tmp, align 8
  %7 = load ptr, ptr %6, align 8
  %call2 = call i32 @g_str_equal(ptr noundef %7, ptr noundef @.str.49)
  %tobool3 = icmp ne i32 %call2, 0
  br i1 %tobool3, label %if.then, label %if.else

if.then:                                          ; preds = %for.body
  store ptr @qemu_log_items, ptr %item, align 8
  br label %for.cond4

for.cond4:                                        ; preds = %for.inc, %if.then
  %8 = load ptr, ptr %item, align 8
  %mask5 = getelementptr inbounds %struct.QEMULogItem, ptr %8, i32 0, i32 0
  %9 = load i32, ptr %mask5, align 8
  %cmp = icmp ne i32 %9, 0
  br i1 %cmp, label %for.body6, label %for.end

for.body6:                                        ; preds = %for.cond4
  %10 = load ptr, ptr %item, align 8
  %mask7 = getelementptr inbounds %struct.QEMULogItem, ptr %10, i32 0, i32 0
  %11 = load i32, ptr %mask7, align 8
  %12 = load i32, ptr %mask, align 4
  %or = or i32 %12, %11
  store i32 %or, ptr %mask, align 4
  br label %for.inc

for.inc:                                          ; preds = %for.body6
  %13 = load ptr, ptr %item, align 8
  %incdec.ptr = getelementptr %struct.QEMULogItem, ptr %13, i32 1
  store ptr %incdec.ptr, ptr %item, align 8
  br label %for.cond4, !llvm.loop !10

for.end:                                          ; preds = %for.cond4
  br label %if.end29

if.else:                                          ; preds = %for.body
  %14 = load ptr, ptr %tmp, align 8
  %15 = load ptr, ptr %14, align 8
  %call8 = call i32 @g_str_has_prefix(ptr noundef %15, ptr noundef @.str.50)
  %tobool9 = icmp ne i32 %call8, 0
  br i1 %tobool9, label %land.lhs.true, label %if.else14

land.lhs.true:                                    ; preds = %if.else
  %16 = load ptr, ptr %tmp, align 8
  %17 = load ptr, ptr %16, align 8
  %arrayidx = getelementptr i8, ptr %17, i64 6
  %18 = load i8, ptr %arrayidx, align 1
  %conv = sext i8 %18 to i32
  %cmp10 = icmp ne i32 %conv, 0
  br i1 %cmp10, label %if.then12, label %if.else14

if.then12:                                        ; preds = %land.lhs.true
  %19 = load ptr, ptr %tmp, align 8
  %20 = load ptr, ptr %19, align 8
  %add.ptr = getelementptr i8, ptr %20, i64 6
  call void @trace_enable_events(ptr noundef %add.ptr)
  %21 = load i32, ptr %mask, align 4
  %or13 = or i32 %21, 32768
  store i32 %or13, ptr %mask, align 4
  br label %if.end28

if.else14:                                        ; preds = %land.lhs.true, %if.else
  store ptr @qemu_log_items, ptr %item, align 8
  br label %for.cond15

for.cond15:                                       ; preds = %for.inc23, %if.else14
  %22 = load ptr, ptr %item, align 8
  %mask16 = getelementptr inbounds %struct.QEMULogItem, ptr %22, i32 0, i32 0
  %23 = load i32, ptr %mask16, align 8
  %cmp17 = icmp ne i32 %23, 0
  br i1 %cmp17, label %for.body19, label %for.end25

for.body19:                                       ; preds = %for.cond15
  %24 = load ptr, ptr %tmp, align 8
  %25 = load ptr, ptr %24, align 8
  %26 = load ptr, ptr %item, align 8
  %name = getelementptr inbounds %struct.QEMULogItem, ptr %26, i32 0, i32 1
  %27 = load ptr, ptr %name, align 8
  %call20 = call i32 @g_str_equal(ptr noundef %25, ptr noundef %27)
  %tobool21 = icmp ne i32 %call20, 0
  br i1 %tobool21, label %if.then22, label %if.end

if.then22:                                        ; preds = %for.body19
  br label %found

if.end:                                           ; preds = %for.body19
  br label %for.inc23

for.inc23:                                        ; preds = %if.end
  %28 = load ptr, ptr %item, align 8
  %incdec.ptr24 = getelementptr %struct.QEMULogItem, ptr %28, i32 1
  store ptr %incdec.ptr24, ptr %item, align 8
  br label %for.cond15, !llvm.loop !11

for.end25:                                        ; preds = %for.cond15
  br label %error

found:                                            ; preds = %if.then22
  %29 = load ptr, ptr %item, align 8
  %mask26 = getelementptr inbounds %struct.QEMULogItem, ptr %29, i32 0, i32 0
  %30 = load i32, ptr %mask26, align 8
  %31 = load i32, ptr %mask, align 4
  %or27 = or i32 %31, %30
  store i32 %or27, ptr %mask, align 4
  br label %if.end28

if.end28:                                         ; preds = %found, %if.then12
  br label %if.end29

if.end29:                                         ; preds = %if.end28, %for.end
  br label %for.inc30

for.inc30:                                        ; preds = %if.end29
  %32 = load ptr, ptr %tmp, align 8
  %incdec.ptr31 = getelementptr ptr, ptr %32, i32 1
  store ptr %incdec.ptr31, ptr %tmp, align 8
  br label %for.cond, !llvm.loop !12

for.end32:                                        ; preds = %land.end
  %33 = load ptr, ptr %parts, align 8
  call void @g_strfreev(ptr noundef %33)
  %34 = load i32, ptr %mask, align 4
  store i32 %34, ptr %retval, align 4
  br label %return

error:                                            ; preds = %for.end25
  %35 = load ptr, ptr %parts, align 8
  call void @g_strfreev(ptr noundef %35)
  store i32 0, ptr %retval, align 4
  br label %return

return:                                           ; preds = %error, %for.end32
  %36 = load i32, ptr %retval, align 4
  ret i32 %36
}