; Function Attrs: nounwind sspstrong uwtable
define dso_local i32 @qemu_str_to_log_mask(ptr noundef %str) local_unnamed_addr #2 {
entry:
  %call = tail call ptr @g_strsplit(ptr noundef %str, ptr noundef nonnull @.str.1, i32 noundef 0) #15
  %tobool.not25 = icmp eq ptr %call, null
  br i1 %tobool.not25, label %return, label %land.rhs

land.rhs:                                         ; preds = %entry, %for.inc30
  %tmp.027 = phi ptr [ %incdec.ptr31, %for.inc30 ], [ %call, %entry ]
  %mask.026 = phi i32 [ %mask.2, %for.inc30 ], [ 0, %entry ]
  %0 = load ptr, ptr %tmp.027, align 8
  %tobool1.not = icmp eq ptr %0, null
  br i1 %tobool1.not, label %return, label %for.body

for.body:                                         ; preds = %land.rhs
  %call2 = tail call i32 @g_str_equal(ptr noundef nonnull %0, ptr noundef nonnull @.str.49) #15
  %tobool3.not = icmp eq i32 %call2, 0
  br i1 %tobool3.not, label %if.else, label %for.body6

for.body6:                                        ; preds = %for.body, %for.body6
  %1 = phi i32 [ %2, %for.body6 ], [ 1, %for.body ]
  %mask.123 = phi i32 [ %or, %for.body6 ], [ %mask.026, %for.body ]
  %item.022 = phi ptr [ %incdec.ptr, %for.body6 ], [ @qemu_log_items, %for.body ]
  %or = or i32 %1, %mask.123
  %incdec.ptr = getelementptr i8, ptr %item.022, i64 24
  %2 = load i32, ptr %incdec.ptr, align 8
  %cmp.not = icmp eq i32 %2, 0
  br i1 %cmp.not, label %for.inc30, label %for.body6, !llvm.loop !11

if.else:                                          ; preds = %for.body
  %3 = load ptr, ptr %tmp.027, align 8
  %call8 = tail call i32 @g_str_has_prefix(ptr noundef %3, ptr noundef nonnull @.str.50) #15
  %tobool9.not = icmp eq i32 %call8, 0
  br i1 %tobool9.not, label %if.else14, label %land.lhs.true

land.lhs.true:                                    ; preds = %if.else
  %4 = load ptr, ptr %tmp.027, align 8
  %arrayidx = getelementptr i8, ptr %4, i64 6
  %5 = load i8, ptr %arrayidx, align 1
  %cmp10.not = icmp eq i8 %5, 0
  br i1 %cmp10.not, label %if.else14, label %if.then12

if.then12:                                        ; preds = %land.lhs.true
  tail call void @trace_enable_events(ptr noundef nonnull %arrayidx) #15
  %or13 = or i32 %mask.026, 32768
  br label %for.inc30

if.else14:                                        ; preds = %land.lhs.true, %if.else
  %6 = load ptr, ptr %tmp.027, align 8
  %call2033 = tail call i32 @g_str_equal(ptr noundef %6, ptr noundef nonnull @.str.9) #15
  %tobool21.not34 = icmp eq i32 %call2033, 0
  br i1 %tobool21.not34, label %for.cond15, label %found

for.cond15:                                       ; preds = %if.else14, %for.body19
  %item.12435 = phi ptr [ %incdec.ptr24, %for.body19 ], [ @qemu_log_items, %if.else14 ]
  %incdec.ptr24 = getelementptr i8, ptr %item.12435, i64 24
  %7 = load i32, ptr %incdec.ptr24, align 8
  %cmp17.not = icmp eq i32 %7, 0
  br i1 %cmp17.not, label %return, label %for.body19, !llvm.loop !12

for.body19:                                       ; preds = %for.cond15
  %8 = load ptr, ptr %tmp.027, align 8
  %name = getelementptr i8, ptr %item.12435, i64 32
  %9 = load ptr, ptr %name, align 8
  %call20 = tail call i32 @g_str_equal(ptr noundef %8, ptr noundef %9) #15
  %tobool21.not = icmp eq i32 %call20, 0
  br i1 %tobool21.not, label %for.cond15, label %found, !llvm.loop !12

found:                                            ; preds = %for.body19, %if.else14
  %.lcssa = phi i32 [ 1, %if.else14 ], [ %7, %for.body19 ]
  %or27 = or i32 %.lcssa, %mask.026
  br label %for.inc30

for.inc30:                                        ; preds = %for.body6, %found, %if.then12
  %mask.2 = phi i32 [ %or13, %if.then12 ], [ %or27, %found ], [ %or, %for.body6 ]
  %incdec.ptr31 = getelementptr i8, ptr %tmp.027, i64 8
  %tobool.not = icmp eq ptr %incdec.ptr31, null
  br i1 %tobool.not, label %return, label %land.rhs, !llvm.loop !13

return:                                           ; preds = %for.inc30, %land.rhs, %for.cond15, %entry
  %retval.0 = phi i32 [ 0, %entry ], [ 0, %for.cond15 ], [ %mask.2, %for.inc30 ], [ %mask.026, %land.rhs ]
  tail call void @g_strfreev(ptr noundef %call) #15
  ret i32 %retval.0
}